; Function Attrs: mustprogress uwtable
define internal noundef zeroext i1 @"_ZNSt17_Function_handlerIFN32pxrInternal_v0_24__pxrReserved__25UsdUtilsStitchValueStatusERKNS0_7TfTokenERKNS0_7SdfPathERKNS0_9TfWeakPtrINS0_8SdfLayerEEEbSC_bPNS0_7VtValueEESt5_BindIFZNS0_12_GLOBAL__N_132_StitchLayersIgnoringTimeSamplesESC_SC_E3$_0St12_PlaceholderILi1EEEEE10_M_managerERSt9_Any_dataRKSO_St18_Manager_operation"(ptr nocapture noundef nonnull align 8 dereferenceable(16) %0, ptr nocapture noundef nonnull readonly align 8 dereferenceable(16) %1, i32 noundef %2) #0 align 2 {
  switch i32 %2, label %"_ZNSt14_Function_base13_Base_managerISt5_BindIFZN32pxrInternal_v0_24__pxrReserved__12_GLOBAL__N_132_StitchLayersIgnoringTimeSamplesERKNS2_9TfWeakPtrINS2_8SdfLayerEEES8_E3$_0St12_PlaceholderILi1EEEEE10_M_managerERSt9_Any_dataRKSF_St18_Manager_operation.exit" [
    i32 0, label %4
    i32 1, label %5
    i32 3, label %8
    i32 2, label %6
  ]

4:                                                ; preds = %3
  store ptr @"_ZTISt5_BindIFZN32pxrInternal_v0_24__pxrReserved__12_GLOBAL__N_132_StitchLayersIgnoringTimeSamplesERKNS0_9TfWeakPtrINS0_8SdfLayerEEES6_E3$_0St12_PlaceholderILi1EEEE", ptr %0, align 8
  br label %"_ZNSt14_Function_base13_Base_managerISt5_BindIFZN32pxrInternal_v0_24__pxrReserved__12_GLOBAL__N_132_StitchLayersIgnoringTimeSamplesERKNS2_9TfWeakPtrINS2_8SdfLayerEEES8_E3$_0St12_PlaceholderILi1EEEEE10_M_managerERSt9_Any_dataRKSF_St18_Manager_operation.exit"

5:                                                ; preds = %3
  %.val = load ptr, ptr %1, align 8
  store ptr %.val, ptr %0, align 8
  br label %"_ZNSt14_Function_base13_Base_managerISt5_BindIFZN32pxrInternal_v0_24__pxrReserved__12_GLOBAL__N_132_StitchLayersIgnoringTimeSamplesERKNS2_9TfWeakPtrINS2_8SdfLayerEEES8_E3$_0St12_PlaceholderILi1EEEEE10_M_managerERSt9_Any_dataRKSF_St18_Manager_operation.exit"

6:                                                ; preds = %3
  %.val6 = load ptr, ptr %1, align 8
  %.val7.i = load i16, ptr %.val6, align 1
  %7 = tail call noalias noundef nonnull dereferenceable(2) ptr @_Znwm(i64 noundef 2) #22
  store i16 %.val7.i, ptr %7, align 2
  store ptr %7, ptr %0, align 8
  br label %"_ZNSt14_Function_base13_Base_managerISt5_BindIFZN32pxrInternal_v0_24__pxrReserved__12_GLOBAL__N_132_StitchLayersIgnoringTimeSamplesERKNS2_9TfWeakPtrINS2_8SdfLayerEEES8_E3$_0St12_PlaceholderILi1EEEEE10_M_managerERSt9_Any_dataRKSF_St18_Manager_operation.exit"

8:                                                ; preds = %3
  %.val8.i = load ptr, ptr %0, align 8
  %9 = icmp eq ptr %.val8.i, null
  br i1 %9, label %"_ZNSt14_Function_base13_Base_managerISt5_BindIFZN32pxrInternal_v0_24__pxrReserved__12_GLOBAL__N_132_StitchLayersIgnoringTimeSamplesERKNS2_9TfWeakPtrINS2_8SdfLayerEEES8_E3$_0St12_PlaceholderILi1EEEEE10_M_managerERSt9_Any_dataRKSF_St18_Manager_operation.exit", label %10

10:                                               ; preds = %8
  tail call void @_ZdlPvm(ptr noundef nonnull %.val8.i, i64 noundef 2) #23
  br label %"_ZNSt14_Function_base13_Base_managerISt5_BindIFZN32pxrInternal_v0_24__pxrReserved__12_GLOBAL__N_132_StitchLayersIgnoringTimeSamplesERKNS2_9TfWeakPtrINS2_8SdfLayerEEES8_E3$_0St12_PlaceholderILi1EEEEE10_M_managerERSt9_Any_dataRKSF_St18_Manager_operation.exit"

"_ZNSt14_Function_base13_Base_managerISt5_BindIFZN32pxrInternal_v0_24__pxrReserved__12_GLOBAL__N_132_StitchLayersIgnoringTimeSamplesERKNS2_9TfWeakPtrINS2_8SdfLayerEEES8_E3$_0St12_PlaceholderILi1EEEEE10_M_managerERSt9_Any_dataRKSF_St18_Manager_operation.exit": ; preds = %3, %10, %8, %6, %5, %4
  ret i1 false
}